Certificate:
    Data:
        Version: 3 (0x2)
        Serial Number: 12635939851296191078 (0xaf5be058bfb63266)
    Signature Algorithm: sha256WithRSAEncryption
        Issuer: CN=QUIC Server Root CA
        Validity
            Not Before: Nov  1 13:17:19 2017 GMT
            Not After : Nov  4 13:17:19 2017 GMT
        Subject: CN=QUIC Server Root CA
        Subject Public Key Info:
            Public Key Algorithm: rsaEncryption
                Public-Key: (2048 bit)
                Modulus:
                    00:f2:b5:51:57:65:ae:79:a6:15:89:e6:5d:3d:4b:
                    ff:fd:62:7c:83:cb:e9:1d:13:62:3a:ce:0b:27:23:
                    7b:30:48:05:70:e4:55:0e:b7:06:07:80:05:0c:db:
                    91:0a:60:24:02:e7:4a:66:71:f6:77:39:d1:6d:a4:
                    cd:8f:2d:48:04:fc:ef:43:60:5d:90:05:3c:db:2c:
                    82:ec:d3:e3:36:f5:57:33:10:0c:cc:86:f1:f7:95:
                    1c:d9:0b:ff:c3:e0:ec:87:69:9b:36:62:d7:68:e3:
                    a5:83:60:63:8a:b1:94:f6:21:37:2b:83:d7:90:50:
                    66:4b:10:56:d1:1c:46:77:34:3e:d6:d9:58:92:05:
                    5d:c3:e4:d8:3b:bb:ed:e1:da:ae:df:ac:51:bf:ec:
                    7e:64:39:d1:ec:1c:10:df:9b:b4:54:4b:f7:b2:cd:
                    27:ea:c7:9a:dd:27:16:b4:8a:a7:7e:7a:0b:79:41:
                    9c:4c:8b:1d:8a:33:96:00:70:91:40:0a:63:6e:41:
                    7f:87:c6:5a:e3:06:f7:e3:c0:c2:b1:b2:10:48:2c:
                    ac:5e:be:72:6e:e9:70:2d:4b:2b:b9:1a:86:74:35:
                    b3:c5:a9:ae:e5:62:da:7f:12:24:4b:a9:24:62:3a:
                    12:29:b8:d3:2d:ab:ca:56:fe:2a:cd:36:07:25:7a:
                    67:a7
                Exponent: 65537 (0x10001)
        X509v3 extensions:
            X509v3 Basic Constraints: critical
                CA:TRUE
            X509v3 Subject Key Identifier: 
                D8:31:F0:E1:CF:99:29:68:9A:5E:FD:6B:32:C1:CE:20:D1:19:B5:6C
            X509v3 Key Usage: critical
                Certificate Sign, CRL Sign
    Signature Algorithm: sha256WithRSAEncryption
         bc:ee:67:60:03:77:21:9c:d2:25:90:0b:94:c6:5e:8c:af:18:
         aa:09:11:60:a6:e6:17:d9:cf:ca:20:ba:84:5f:e1:a1:01:5d:
         a8:b8:0c:23:27:02:3b:4a:05:34:ab:c9:5a:a6:ea:39:41:9f:
         05:48:a8:72:a8:69:7e:d0:cd:be:a5:ee:4c:31:0e:3b:48:a0:
         e3:18:7f:67:2e:76:6a:ba:f4:49:98:18:02:d3:28:64:ef:33:
         27:9d:01:5c:d0:29:1e:33:cc:72:69:c5:26:6e:70:7a:c4:0e:
         08:37:59:3b:b0:c6:d6:2a:82:9e:79:3b:46:85:46:a8:b6:02:
         ce:8e:cd:a5:27:0a:3b:4f:e2:1c:a1:49:a2:e0:c5:96:7e:18:
         f0:86:37:82:4b:52:6a:0d:09:fe:b6:4c:af:29:13:b1:d6:f0:
         67:98:ee:be:98:25:3e:07:c6:21:0d:8b:20:43:e3:84:76:70:
         32:59:32:fe:d3:c4:4f:55:c9:e9:50:35:61:ab:8f:d9:b6:fc:
         43:5c:19:78:e4:0d:8a:0c:58:3d:f2:37:8d:b2:cd:1d:1b:63:
         81:d3:53:86:b7:48:fe:e7:cc:7d:59:fd:3a:7f:c1:01:de:94:
         11:c2:93:a5:14:f8:6d:a3:34:52:7d:66:7f:0f:83:4e:2b:0d:
         af:e6:35:c0
-----BEGIN CERTIFICATE-----
MIIDATCCAemgAwIBAgIJAK9b4Fi/tjJmMA0GCSqGSIb3DQEBCwUAMB4xHDAaBgNV
BAMME1FVSUMgU2VydmVyIFJvb3QgQ0EwHhcNMTcxMTAxMTMxNzE5WhcNMTcxMTA0
MTMxNzE5WjAeMRwwGgYDVQQDDBNRVUlDIFNlcnZlciBSb290IENBMIIBIjANBgkq
hkiG9w0BAQEFAAOCAQ8AMIIBCgKCAQEA8rVRV2WueaYVieZdPUv//WJ8g8vpHRNi
Os4LJyN7MEgFcORVDrcGB4AFDNuRCmAkAudKZnH2dznRbaTNjy1IBPzvQ2BdkAU8
2yyC7NPjNvVXMxAMzIbx95Uc2Qv/w+Dsh2mbNmLXaOOlg2BjirGU9iE3K4PXkFBm
SxBW0RxGdzQ+1tlYkgVdw+TYO7vt4dqu36xRv+x+ZDnR7BwQ35u0VEv3ss0n6sea
3ScWtIqnfnoLeUGcTIsdijOWAHCRQApjbkF/h8Za4wb348DCsbIQSCysXr5ybulw
LUsruRqGdDWzxamu5WLafxIkS6kkYjoSKbjTLavKVv4qzTYHJXpnpwIDAQABo0Iw
QDAPBgNVHRMBAf8EBTADAQH/MB0GA1UdDgQWBBTYMfDhz5kpaJpe/Wsywc4g0Rm1
bDAOBgNVHQ8BAf8EBAMCAQYwDQYJKoZIhvcNAQELBQADggEBALzuZ2ADdyGc0iWQ
C5TGXoyvGKoJEWCm5hfZz8oguoRf4aEBXai4DCMnAjtKBTSryVqm6jlBnwVIqHKo
aX7Qzb6l7kwxDjtIoOMYf2cudmq69EmYGALTKGTvMyedAVzQKR4zzHJpxSZucHrE
Dgg3WTuwxtYqgp55O0aFRqi2As6OzaUnCjtP4hyhSaLgxZZ+GPCGN4JLUmoNCf62
TK8pE7HW8GeY7r6YJT4HxiENiyBD44R2cDJZMv7TxE9VyelQNWGrj9m2/ENcGXjk
DYoMWD3yN42yzR0bY4HTU4a3SP7nzH1Z/Tp/wQHelBHCk6UU+G2jNFJ9Zn8Pg04r
Da/mNcA=
-----END CERTIFICATE-----
