Certificate:
    Data:
        Version: 3 (0x2)
        Serial Number: 1 (0x1)
    Signature Algorithm: sha256WithRSAEncryption
        Issuer: CN=QUIC Server Root CA
        Validity
            Not Before: Nov  1 13:17:19 2017 GMT
            Not After : Nov  4 13:17:19 2017 GMT
        Subject: C=US, ST=California, L=Mountain View, O=QUIC Server, CN=127.0.0.1
        Subject Public Key Info:
            Public Key Algorithm: rsaEncryption
                Public-Key: (2048 bit)
                Modulus:
                    00:c4:84:4e:58:a5:3d:5b:92:d3:c7:88:5c:dd:5d:
                    91:6d:55:dd:0b:06:5d:af:1f:08:8b:76:23:63:e9:
                    29:bc:b7:68:f7:4c:d0:5d:49:26:4a:5c:79:3c:0f:
                    f8:79:d2:c9:44:98:63:2d:1b:7d:7f:53:2b:4a:b0:
                    cc:b4:d0:f1:6f:52:60:48:bb:71:03:b3:90:d6:b1:
                    28:b1:af:c4:4f:1b:f0:1e:bc:70:be:25:ac:9a:7d:
                    28:19:e2:8b:07:32:95:da:ea:41:01:36:68:00:2f:
                    92:7c:1a:b3:c5:47:31:e4:92:96:57:78:a3:20:fc:
                    f1:d2:2b:4a:20:58:52:c1:8a:19:93:a9:2d:fa:fb:
                    2b:e6:69:bd:b6:0c:32:2d:9a:7b:1d:fe:46:9b:c2:
                    77:8c:2d:15:ad:4b:f2:2e:31:01:c5:e4:b4:b7:e4:
                    9b:13:6b:57:36:73:c3:6c:b9:33:54:67:4e:16:1f:
                    9d:9e:2e:23:9d:b7:d4:9d:61:f5:93:2e:fd:20:17:
                    ed:cb:e6:7d:d8:e5:af:65:2d:4f:4a:ad:c8:02:1b:
                    81:97:a2:c7:16:e3:ef:c0:9e:c9:d6:8b:82:86:75:
                    2b:89:8d:a4:90:8f:dc:57:e2:03:a4:06:79:12:0d:
                    cb:02:c7:08:5a:42:e7:88:1b:09:24:db:fd:82:a6:
                    4f:e7
                Exponent: 65537 (0x10001)
        X509v3 extensions:
            X509v3 Basic Constraints: critical
                CA:FALSE
            X509v3 Subject Key Identifier: 
                F2:5C:CF:25:91:D4:FB:78:25:3F:1A:E7:FB:AE:7A:7E:37:E8:15:D6
            X509v3 Authority Key Identifier: 
                keyid:D8:31:F0:E1:CF:99:29:68:9A:5E:FD:6B:32:C1:CE:20:D1:19:B5:6C

            X509v3 Extended Key Usage: 
                TLS Web Server Authentication, TLS Web Client Authentication
            X509v3 Subject Alternative Name: 
                DNS:www.example.org, DNS:mail.example.org, DNS:mail.example.com, IP Address:127.0.0.1
    Signature Algorithm: sha256WithRSAEncryption
         19:9f:5d:47:23:81:71:8e:7b:89:6e:ed:10:df:ef:85:ff:7e:
         8d:7b:7b:a6:ea:9c:9f:4c:87:21:29:a7:a5:e3:f2:df:3c:32:
         bd:67:11:6e:55:83:f0:69:68:59:a8:b5:99:30:a4:85:17:4f:
         2d:3d:4d:96:ad:64:4a:57:76:2e:f9:3f:65:9b:a7:30:55:f1:
         15:0c:15:77:42:be:6a:65:32:3e:20:0a:9b:59:f0:e1:11:dc:
         65:95:ab:39:11:a6:62:09:04:85:a7:76:b3:c5:12:d2:8d:9d:
         3e:49:12:4f:f6:3f:4c:49:8b:29:a6:95:6c:56:89:76:6f:f4:
         38:b9:9f:ee:8f:6c:52:f0:74:eb:94:f7:bc:e6:67:79:7b:fe:
         8a:01:77:03:43:50:41:34:1c:cf:ef:89:ce:e7:bc:69:bb:cb:
         e1:1e:14:02:39:7a:a3:da:97:1a:82:c2:93:10:79:6f:3e:75:
         0b:f4:6e:1f:b1:73:8b:0b:7c:9e:bb:61:41:bf:d3:9e:f4:94:
         5e:93:2d:09:5b:8b:3c:d4:c7:e7:87:5a:c9:d6:49:53:5d:0e:
         6d:a9:a2:d7:f2:a5:64:2a:ae:4a:06:e4:74:9f:c7:81:18:f1:
         60:31:05:f4:89:a8:42:93:0f:4c:29:b9:19:13:0a:14:44:06:
         38:b0:45:79
-----BEGIN CERTIFICATE-----
MIIDtDCCApygAwIBAgIBATANBgkqhkiG9w0BAQsFADAeMRwwGgYDVQQDDBNRVUlD
IFNlcnZlciBSb290IENBMB4XDTE3MTEwMTEzMTcxOVoXDTE3MTEwNDEzMTcxOVow
ZDELMAkGA1UEBhMCVVMxEzARBgNVBAgMCkNhbGlmb3JuaWExFjAUBgNVBAcMDU1v
dW50YWluIFZpZXcxFDASBgNVBAoMC1FVSUMgU2VydmVyMRIwEAYDVQQDDAkxMjcu
MC4wLjEwggEiMA0GCSqGSIb3DQEBAQUAA4IBDwAwggEKAoIBAQDEhE5YpT1bktPH
iFzdXZFtVd0LBl2vHwiLdiNj6Sm8t2j3TNBdSSZKXHk8D/h50slEmGMtG31/UytK
sMy00PFvUmBIu3EDs5DWsSixr8RPG/AevHC+JayafSgZ4osHMpXa6kEBNmgAL5J8
GrPFRzHkkpZXeKMg/PHSK0ogWFLBihmTqS36+yvmab22DDItmnsd/kabwneMLRWt
S/IuMQHF5LS35JsTa1c2c8NsuTNUZ04WH52eLiOdt9SdYfWTLv0gF+3L5n3Y5a9l
LU9KrcgCG4GXoscW4+/AnsnWi4KGdSuJjaSQj9xX4gOkBnkSDcsCxwhaQueIGwkk
2/2Cpk/nAgMBAAGjgbYwgbMwDAYDVR0TAQH/BAIwADAdBgNVHQ4EFgQU8lzPJZHU
+3glPxrn+656fjfoFdYwHwYDVR0jBBgwFoAU2DHw4c+ZKWiaXv1rMsHOINEZtWww
HQYDVR0lBBYwFAYIKwYBBQUHAwEGCCsGAQUFBwMCMEQGA1UdEQQ9MDuCD3d3dy5l
eGFtcGxlLm9yZ4IQbWFpbC5leGFtcGxlLm9yZ4IQbWFpbC5leGFtcGxlLmNvbYcE
fwAAATANBgkqhkiG9w0BAQsFAAOCAQEAGZ9dRyOBcY57iW7tEN/vhf9+jXt7puqc
n0yHISmnpePy3zwyvWcRblWD8GloWai1mTCkhRdPLT1Nlq1kSld2Lvk/ZZunMFXx
FQwVd0K+amUyPiAKm1nw4RHcZZWrORGmYgkEhad2s8US0o2dPkkST/Y/TEmLKaaV
bFaJdm/0OLmf7o9sUvB065T3vOZneXv+igF3A0NQQTQcz++Jzue8abvL4R4UAjl6
o9qXGoLCkxB5bz51C/RuH7Fziwt8nrthQb/TnvSUXpMtCVuLPNTH54daydZJU10O
bami1/KlZCquSgbkdJ/HgRjxYDEF9ImoQpMPTCm5GRMKFEQGOLBFeQ==
-----END CERTIFICATE-----
